; Function Attrs: nounwind uwtable
define internal void @pointerHandleAxis(ptr readnone captures(none) %0, ptr readnone captures(none) %1, i32 %2, i32 noundef %3, i32 noundef %4) #0 {
  %6 = load ptr, ptr getelementptr inbounds nuw (i8, ptr @_glfw, i64 137360), align 8, !tbaa !238
  %.not = icmp eq ptr %6, null
  br i1 %.not, label %20, label %7

7:                                                ; preds = %5
  switch i32 %3, label %20 [
    i32 1, label %8
    i32 0, label %14
  ]

8:                                                ; preds = %7
  %9 = sext i32 %4 to i64
  %10 = add nsw i64 %9, 4807592602218004480
  %11 = bitcast i64 %10 to double
  %12 = fadd double %11, 0xC2B8000000000000
  %13 = fdiv double %12, -1.000000e+01
  tail call void @_glfwInputScroll(ptr noundef nonnull %6, double noundef %13, double noundef 0.000000e+00) #20
  br label %20

14:                                               ; preds = %7
  %15 = sext i32 %4 to i64
  %16 = add nsw i64 %15, 4807592602218004480
  %17 = bitcast i64 %16 to double
  %18 = fadd double %17, 0xC2B8000000000000
  %19 = fdiv double %18, -1.000000e+01
  tail call void @_glfwInputScroll(ptr noundef nonnull %6, double noundef 0.000000e+00, double noundef %19) #20
  br label %20

20:                                               ; preds = %8, %14, %7, %5
  ret void
}